target datalayout = "e-m:e-p270:32:32-p271:32:32-p272:64:64-i64:64-i128:128-f80:128-n8:16:32:64-S128"
target triple = "x86_64-pc-linux-gnu"

%"class.std::__cxx11::basic_string" = type { %"struct.std::__cxx11::basic_string<char>::_Alloc_hider", i64, %union.anon }
%"struct.std::__cxx11::basic_string<char>::_Alloc_hider" = type { ptr }
%union.anon = type { i64, [8 x i8] }
%"class.std::exception" = type { ptr }
%"struct.boost::source_location" = type { ptr, ptr, i32, i32 }
%"class.boost::log::v2_mt_posix::bad_alloc" = type { %"class.std::bad_alloc", %"class.std::__cxx11::basic_string" }
%"class.std::bad_alloc" = type { %"class.std::exception" }
%"struct.boost::log::v2_mt_posix::ipc::reliable_message_queue::fixed_buffer_state" = type { ptr, i32 }

@.str.1 = private unnamed_addr constant [139 x i8] c"generated/home/dtcxzyw/WorkSpace/Projects/compilers/llvm-opt-benchmark/bench/boost/boost/libs/log/src/posix/ipc_reliable_message_queue.cpp\00", align 1
@.str.5 = private unnamed_addr constant [40 x i8] c"Buffer too small to receive the message\00", align 1
@.str.6 = private unnamed_addr constant [29 x i8] c"fixed_buffer_receive_handler\00", align 1

; Function Attrs: mustprogress nounwind uwtable
define linkonce_odr hidden void @_ZN5boost15source_locationC2EPKcjS2_j(ptr noundef nonnull align 8 dereferenceable(24) %0, ptr noundef %1, i32 noundef %2, ptr noundef %3, i32 noundef %4) unnamed_addr #2 comdat align 2 {
  %6 = alloca ptr, align 8
  %7 = alloca ptr, align 8
  %8 = alloca i32, align 4
  %9 = alloca ptr, align 8
  %10 = alloca i32, align 4
  store ptr %0, ptr %6, align 8, !tbaa !7
  store ptr %1, ptr %7, align 8, !tbaa !7
  store i32 %2, ptr %8, align 4, !tbaa !3
  store ptr %3, ptr %9, align 8, !tbaa !7
  store i32 %4, ptr %10, align 4, !tbaa !3
  %11 = load ptr, ptr %6, align 8
  %12 = getelementptr inbounds nuw %"struct.boost::source_location", ptr %11, i32 0, i32 0
  %13 = load ptr, ptr %7, align 8, !tbaa !7
  store ptr %13, ptr %12, align 8, !tbaa !22
  %14 = getelementptr inbounds nuw %"struct.boost::source_location", ptr %11, i32 0, i32 1
  %15 = load ptr, ptr %9, align 8, !tbaa !7
  store ptr %15, ptr %14, align 8, !tbaa !24
  %16 = getelementptr inbounds nuw %"struct.boost::source_location", ptr %11, i32 0, i32 2
  %17 = load i32, ptr %8, align 4, !tbaa !3
  store i32 %17, ptr %16, align 8, !tbaa !25
  %18 = getelementptr inbounds nuw %"struct.boost::source_location", ptr %11, i32 0, i32 3
  %19 = load i32, ptr %10, align 4, !tbaa !3
  store i32 %19, ptr %18, align 4, !tbaa !26
  ret void
}

; Function Attrs: mustprogress uwtable
define void @_ZN5boost3log11v2_mt_posix3ipc22reliable_message_queue28fixed_buffer_receive_handlerEPvPKvj(ptr noundef %0, ptr noundef %1, i32 noundef %2) #5 align 2 personality ptr @__gxx_personality_v0 {
  %4 = alloca ptr, align 8
  %5 = alloca ptr, align 8
  %6 = alloca i32, align 4
  %7 = alloca ptr, align 8
  %8 = alloca %"class.boost::log::v2_mt_posix::bad_alloc", align 8
  %9 = alloca %"struct.boost::source_location", align 8
  %10 = alloca ptr, align 8
  %11 = alloca i32, align 4
  store ptr %0, ptr %4, align 8, !tbaa !7
  store ptr %1, ptr %5, align 8, !tbaa !7
  store i32 %2, ptr %6, align 4, !tbaa !3
  call void @llvm.lifetime.start.p0(i64 8, ptr %7) #24
  %12 = load ptr, ptr %4, align 8, !tbaa !7
  store ptr %12, ptr %7, align 8, !tbaa !7
  %13 = load i32, ptr %6, align 4, !tbaa !3
  %14 = load ptr, ptr %7, align 8, !tbaa !7
  %15 = getelementptr inbounds nuw %"struct.boost::log::v2_mt_posix::ipc::reliable_message_queue::fixed_buffer_state", ptr %14, i32 0, i32 1
  %16 = load i32, ptr %15, align 8, !tbaa !65
  %17 = icmp ugt i32 %13, %16
  %18 = zext i1 %17 to i64
  %19 = call i64 @llvm.expect.i64(i64 %18, i64 0)
  %20 = icmp ne i64 %19, 0
  br i1 %20, label %21, label %27

21:                                               ; preds = %3
  call void @llvm.lifetime.start.p0(i64 40, ptr %8) #24
  call void @_ZN5boost3log11v2_mt_posix9bad_allocC1EPKc(ptr noundef nonnull align 8 dereferenceable(40) %8, ptr noundef @.str.5)
  call void @llvm.lifetime.start.p0(i64 24, ptr %9) #24
  call void @_ZN5boost15source_locationC2EPKcjS2_j(ptr noundef nonnull align 8 dereferenceable(24) %9, ptr noundef @.str.1, i32 noundef 1008, ptr noundef @.str.6, i32 noundef 83) #24
  invoke void @_ZN5boost15throw_exceptionINS_3log11v2_mt_posix9bad_allocEEEvRKT_RKNS_15source_locationE(ptr noundef nonnull align 8 dereferenceable(40) %8, ptr noundef nonnull align 8 dereferenceable(24) %9) #26
          to label %22 unwind label %23

22:                                               ; preds = %21
  unreachable

23:                                               ; preds = %21
  %24 = landingpad { ptr, i32 }
          cleanup
  %25 = extractvalue { ptr, i32 } %24, 0
  store ptr %25, ptr %10, align 8
  %26 = extractvalue { ptr, i32 } %24, 1
  store i32 %26, ptr %11, align 4
  call void @llvm.lifetime.end.p0(i64 24, ptr %9) #24
  call void @_ZN5boost3log11v2_mt_posix9bad_allocD1Ev(ptr noundef nonnull align 8 dereferenceable(40) %8) #24
  call void @llvm.lifetime.end.p0(i64 40, ptr %8) #24
  call void @llvm.lifetime.end.p0(i64 8, ptr %7) #24
  br label %45

27:                                               ; preds = %3
  %28 = load ptr, ptr %7, align 8, !tbaa !7
  %29 = getelementptr inbounds nuw %"struct.boost::log::v2_mt_posix::ipc::reliable_message_queue::fixed_buffer_state", ptr %28, i32 0, i32 0
  %30 = load ptr, ptr %29, align 8, !tbaa !67
  %31 = load ptr, ptr %5, align 8, !tbaa !7
  %32 = load i32, ptr %6, align 4, !tbaa !3
  %33 = zext i32 %32 to i64
  call void @llvm.memcpy.p0.p0.i64(ptr align 1 %30, ptr align 1 %31, i64 %33, i1 false)
  %34 = load i32, ptr %6, align 4, !tbaa !3
  %35 = load ptr, ptr %7, align 8, !tbaa !7
  %36 = getelementptr inbounds nuw %"struct.boost::log::v2_mt_posix::ipc::reliable_message_queue::fixed_buffer_state", ptr %35, i32 0, i32 0
  %37 = load ptr, ptr %36, align 8, !tbaa !67
  %38 = zext i32 %34 to i64
  %39 = getelementptr inbounds nuw i8, ptr %37, i64 %38
  store ptr %39, ptr %36, align 8, !tbaa !67
  %40 = load i32, ptr %6, align 4, !tbaa !3
  %41 = load ptr, ptr %7, align 8, !tbaa !7
  %42 = getelementptr inbounds nuw %"struct.boost::log::v2_mt_posix::ipc::reliable_message_queue::fixed_buffer_state", ptr %41, i32 0, i32 1
  %43 = load i32, ptr %42, align 8, !tbaa !65
  %44 = sub i32 %43, %40
  store i32 %44, ptr %42, align 8, !tbaa !65
  call void @llvm.lifetime.end.p0(i64 8, ptr %7) #24
  ret void

45:                                               ; preds = %23
  %46 = load ptr, ptr %10, align 8
  %47 = load i32, ptr %11, align 4
  %48 = insertvalue { ptr, i32 } poison, ptr %46, 0
  %49 = insertvalue { ptr, i32 } %48, i32 %47, 1
  resume { ptr, i32 } %49
}