; Function Attrs: mustprogress uwtable
define void @_ZN5boost3log11v2_mt_posix3ipc22reliable_message_queue28fixed_buffer_receive_handlerEPvPKvj(ptr nocapture noundef %0, ptr nocapture noundef readonly %1, i32 noundef %2) local_unnamed_addr #4 align 2 personality ptr @__gxx_personality_v0 {
  %4 = alloca %"class.boost::log::v2_mt_posix::bad_alloc", align 8
  %5 = alloca %"struct.boost::source_location", align 8
  %6 = getelementptr inbounds nuw i8, ptr %0, i64 8
  %7 = load i32, ptr %6, align 8, !tbaa !99
  %8 = icmp ugt i32 %2, %7
  br i1 %8, label %9, label %16, !prof !71

9:                                                ; preds = %3
  call void @llvm.lifetime.start.p0(i64 40, ptr nonnull %4) #32
  call void @_ZN5boost3log11v2_mt_posix9bad_allocC1EPKc(ptr noundef nonnull align 8 dereferenceable(40) %4, ptr noundef nonnull @.str.5)
  call void @llvm.lifetime.start.p0(i64 24, ptr nonnull %5) #32
  store ptr @.str.1, ptr %5, align 8, !tbaa !14
  %10 = getelementptr inbounds nuw i8, ptr %5, i64 8
  store ptr @.str.6, ptr %10, align 8, !tbaa !17
  %11 = getelementptr inbounds nuw i8, ptr %5, i64 16
  store i32 1008, ptr %11, align 8, !tbaa !18
  %12 = getelementptr inbounds nuw i8, ptr %5, i64 20
  store i32 83, ptr %12, align 4, !tbaa !19
  invoke void @_ZN5boost15throw_exceptionINS_3log11v2_mt_posix9bad_allocEEEvRKT_RKNS_15source_locationE(ptr noundef nonnull align 8 dereferenceable(40) %4, ptr noundef nonnull align 8 dereferenceable(24) %5) #34
          to label %13 unwind label %14

13:                                               ; preds = %9
  unreachable

14:                                               ; preds = %9
  %15 = landingpad { ptr, i32 }
          cleanup
  call void @llvm.lifetime.end.p0(i64 24, ptr nonnull %5) #32
  call void @_ZN5boost3log11v2_mt_posix9bad_allocD1Ev(ptr noundef nonnull align 8 dereferenceable(40) %4) #32
  call void @llvm.lifetime.end.p0(i64 40, ptr nonnull %4) #32
  resume { ptr, i32 } %15

16:                                               ; preds = %3
  %17 = load ptr, ptr %0, align 8, !tbaa !101
  %18 = zext i32 %2 to i64
  tail call void @llvm.memcpy.p0.p0.i64(ptr align 1 %17, ptr align 1 %1, i64 %18, i1 false)
  %19 = load ptr, ptr %0, align 8, !tbaa !101
  %20 = getelementptr inbounds nuw i8, ptr %19, i64 %18
  store ptr %20, ptr %0, align 8, !tbaa !101
  %21 = load i32, ptr %6, align 8, !tbaa !99
  %22 = sub i32 %21, %2
  store i32 %22, ptr %6, align 8, !tbaa !99
  ret void
}